; Function Attrs: nounwind uwtable
define ptr @l_panic___at_Lean_Linter_UnusedVariables_collectReferences_go___spec__22___boxed(ptr noundef %0, ptr noundef %1, ptr noundef %2, ptr noundef %3) local_unnamed_addr #1 {
  %5 = ptrtoint ptr %1 to i64
  %6 = and i64 %5, 1
  %.not = icmp eq i64 %6, 0
  br i1 %.not, label %7, label %lean_dec.exit

7:                                                ; preds = %4
  %8 = load i32, ptr %1, align 4, !tbaa !8
  %9 = icmp sgt i32 %8, 1
  br i1 %9, label %10, label %12, !prof !11

10:                                               ; preds = %7
  %11 = add nsw i32 %8, -1
  store i32 %11, ptr %1, align 4, !tbaa !8
  br label %lean_dec.exit

12:                                               ; preds = %7
  %.not.i = icmp eq i32 %8, 0
  br i1 %.not.i, label %lean_dec.exit, label %13

13:                                               ; preds = %12
  tail call void @lean_dec_ref_cold(ptr noundef nonnull %1) #7
  br label %lean_dec.exit

lean_dec.exit:                                    ; preds = %13, %12, %10, %4
  %14 = load ptr, ptr @l_panic___at_Lean_Linter_UnusedVariables_collectReferences_go___spec__22___closed__4, align 8, !tbaa !4
  %15 = tail call ptr @lean_panic_fn(ptr noundef %14, ptr noundef %0) #7
  %16 = and i64 %5, 510
  %17 = or disjoint i64 %16, 1
  %18 = inttoptr i64 %17 to ptr
  %19 = tail call ptr @lean_apply_3(ptr noundef %15, ptr noundef nonnull %18, ptr noundef %2, ptr noundef %3) #7
  ret ptr %19
}